target datalayout = "e-m:e-p270:32:32-p271:32:32-p272:64:64-i64:64-i128:128-f80:128-n8:16:32:64-S128"
target triple = "x86_64-pc-linux-gnu"

%struct.PKCS12_SAFEBAG_st = type { ptr, %union.anon, ptr }
%union.anon = type { ptr }
%struct.pkcs12_bag_st = type { ptr, %union.anon.0 }
%union.anon.0 = type { ptr }

; Function Attrs: nounwind uwtable
define i32 @PKCS12_SAFEBAG_get_nid(ptr noundef %0) #0 {
  %2 = alloca ptr, align 8
  store ptr %0, ptr %2, align 8, !tbaa !3
  %3 = load ptr, ptr %2, align 8, !tbaa !3
  %4 = getelementptr inbounds nuw %struct.PKCS12_SAFEBAG_st, ptr %3, i32 0, i32 0
  %5 = load ptr, ptr %4, align 8, !tbaa !17
  %6 = call i32 @OBJ_obj2nid(ptr noundef %5)
  ret i32 %6
}

; Function Attrs: nounwind uwtable
define ptr @PKCS12_SAFEBAG_get1_crl_ex(ptr noundef %0, ptr noundef %1, ptr noundef %2) #0 {
  %4 = alloca ptr, align 8
  %5 = alloca ptr, align 8
  %6 = alloca ptr, align 8
  %7 = alloca ptr, align 8
  %8 = alloca ptr, align 8
  %9 = alloca i32, align 4
  store ptr %0, ptr %5, align 8, !tbaa !3
  store ptr %1, ptr %6, align 8, !tbaa !20
  store ptr %2, ptr %7, align 8, !tbaa !22
  call void @llvm.lifetime.start.p0(i64 8, ptr %8) #3
  store ptr null, ptr %8, align 8, !tbaa !26
  %10 = load ptr, ptr %5, align 8, !tbaa !3
  %11 = call i32 @PKCS12_SAFEBAG_get_nid(ptr noundef %10)
  %12 = icmp ne i32 %11, 153
  br i1 %12, label %13, label %14

13:                                               ; preds = %3
  store ptr null, ptr %4, align 8
  store i32 1, ptr %9, align 4
  br label %42

14:                                               ; preds = %3
  %15 = load ptr, ptr %5, align 8, !tbaa !3
  %16 = getelementptr inbounds nuw %struct.PKCS12_SAFEBAG_st, ptr %15, i32 0, i32 1
  %17 = load ptr, ptr %16, align 8, !tbaa !16
  %18 = getelementptr inbounds nuw %struct.pkcs12_bag_st, ptr %17, i32 0, i32 0
  %19 = load ptr, ptr %18, align 8, !tbaa !18
  %20 = call i32 @OBJ_obj2nid(ptr noundef %19)
  %21 = icmp ne i32 %20, 160
  br i1 %21, label %22, label %23

22:                                               ; preds = %14
  store ptr null, ptr %4, align 8
  store i32 1, ptr %9, align 4
  br label %42

23:                                               ; preds = %14
  %24 = load ptr, ptr %5, align 8, !tbaa !3
  %25 = getelementptr inbounds nuw %struct.PKCS12_SAFEBAG_st, ptr %24, i32 0, i32 1
  %26 = load ptr, ptr %25, align 8, !tbaa !16
  %27 = getelementptr inbounds nuw %struct.pkcs12_bag_st, ptr %26, i32 0, i32 1
  %28 = load ptr, ptr %27, align 8, !tbaa !16
  %29 = call ptr @X509_CRL_it()
  %30 = load ptr, ptr %6, align 8, !tbaa !20
  %31 = load ptr, ptr %7, align 8, !tbaa !22
  %32 = call ptr @ASN1_item_unpack_ex(ptr noundef %28, ptr noundef %29, ptr noundef %30, ptr noundef %31)
  store ptr %32, ptr %8, align 8, !tbaa !26
  %33 = load ptr, ptr %8, align 8, !tbaa !26
  %34 = load ptr, ptr %6, align 8, !tbaa !20
  %35 = load ptr, ptr %7, align 8, !tbaa !22
  %36 = call i32 @ossl_x509_crl_set0_libctx(ptr noundef %33, ptr noundef %34, ptr noundef %35)
  %37 = icmp ne i32 %36, 0
  br i1 %37, label %40, label %38

38:                                               ; preds = %23
  %39 = load ptr, ptr %8, align 8, !tbaa !26
  call void @X509_CRL_free(ptr noundef %39)
  store ptr null, ptr %4, align 8
  store i32 1, ptr %9, align 4
  br label %42

40:                                               ; preds = %23
  %41 = load ptr, ptr %8, align 8, !tbaa !26
  store ptr %41, ptr %4, align 8
  store i32 1, ptr %9, align 4
  br label %42

42:                                               ; preds = %40, %38, %22, %13
  call void @llvm.lifetime.end.p0(i64 8, ptr %8) #3
  %43 = load ptr, ptr %4, align 8
  ret ptr %43
}